target datalayout = "e-m:e-p270:32:32-p271:32:32-p272:64:64-i64:64-i128:128-f80:128-n8:16:32:64-S128"
target triple = "x86_64-pc-linux-gnu"

%struct.WFILE = type { ptr, i32, i32, ptr, ptr, ptr, ptr, ptr, i32, i32 }

@.str = private unnamed_addr constant [14 x i8] c"marshal.dumps\00", align 1
@.str.1 = private unnamed_addr constant [3 x i8] c"Oi\00", align 1

; Function Attrs: nounwind uwtable
define internal void @w_flush(ptr noundef %0) #0 {
  %2 = alloca ptr, align 8
  store ptr %0, ptr %2, align 8, !tbaa !23
  %3 = load ptr, ptr %2, align 8, !tbaa !23
  %4 = getelementptr inbounds nuw %struct.WFILE, ptr %3, i32 0, i32 6
  %5 = load ptr, ptr %4, align 8, !tbaa !18
  %6 = load ptr, ptr %2, align 8, !tbaa !23
  %7 = getelementptr inbounds nuw %struct.WFILE, ptr %6, i32 0, i32 4
  %8 = load ptr, ptr %7, align 8, !tbaa !19
  %9 = load ptr, ptr %2, align 8, !tbaa !23
  %10 = getelementptr inbounds nuw %struct.WFILE, ptr %9, i32 0, i32 6
  %11 = load ptr, ptr %10, align 8, !tbaa !18
  %12 = ptrtoint ptr %8 to i64
  %13 = ptrtoint ptr %11 to i64
  %14 = sub i64 %12, %13
  %15 = load ptr, ptr %2, align 8, !tbaa !23
  %16 = getelementptr inbounds nuw %struct.WFILE, ptr %15, i32 0, i32 0
  %17 = load ptr, ptr %16, align 8, !tbaa !13
  %18 = call i64 @fwrite(ptr noundef %5, i64 noundef 1, i64 noundef %14, ptr noundef %17)
  %19 = load ptr, ptr %2, align 8, !tbaa !23
  %20 = getelementptr inbounds nuw %struct.WFILE, ptr %19, i32 0, i32 6
  %21 = load ptr, ptr %20, align 8, !tbaa !18
  %22 = load ptr, ptr %2, align 8, !tbaa !23
  %23 = getelementptr inbounds nuw %struct.WFILE, ptr %22, i32 0, i32 4
  store ptr %21, ptr %23, align 8, !tbaa !19
  ret void
}

; Function Attrs: nounwind uwtable
define internal void @w_clear_refs(ptr noundef %0) #0 {
  %2 = alloca ptr, align 8
  store ptr %0, ptr %2, align 8, !tbaa !23
  %3 = load ptr, ptr %2, align 8, !tbaa !23
  %4 = getelementptr inbounds nuw %struct.WFILE, ptr %3, i32 0, i32 7
  %5 = load ptr, ptr %4, align 8, !tbaa !27
  %6 = icmp ne ptr %5, null
  br i1 %6, label %7, label %11

7:                                                ; preds = %1
  %8 = load ptr, ptr %2, align 8, !tbaa !23
  %9 = getelementptr inbounds nuw %struct.WFILE, ptr %8, i32 0, i32 7
  %10 = load ptr, ptr %9, align 8, !tbaa !27
  call void @_Py_hashtable_destroy(ptr noundef %10)
  br label %11

11:                                               ; preds = %7, %1
  ret void
}

; Function Attrs: nounwind uwtable
define internal i32 @w_init_refs(ptr noundef %0, i32 noundef %1) #0 {
  %3 = alloca i32, align 4
  %4 = alloca ptr, align 8
  %5 = alloca i32, align 4
  store ptr %0, ptr %4, align 8, !tbaa !23
  store i32 %1, ptr %5, align 4, !tbaa !11
  %6 = load i32, ptr %5, align 4, !tbaa !11
  %7 = icmp sge i32 %6, 3
  br i1 %7, label %8, label %19

8:                                                ; preds = %2
  %9 = call ptr @_Py_hashtable_new_full(ptr noundef @_Py_hashtable_hash_ptr, ptr noundef @_Py_hashtable_compare_direct, ptr noundef @w_decref_entry, ptr noundef null, ptr noundef null)
  %10 = load ptr, ptr %4, align 8, !tbaa !23
  %11 = getelementptr inbounds nuw %struct.WFILE, ptr %10, i32 0, i32 7
  store ptr %9, ptr %11, align 8, !tbaa !27
  %12 = load ptr, ptr %4, align 8, !tbaa !23
  %13 = getelementptr inbounds nuw %struct.WFILE, ptr %12, i32 0, i32 7
  %14 = load ptr, ptr %13, align 8, !tbaa !27
  %15 = icmp eq ptr %14, null
  br i1 %15, label %16, label %18

16:                                               ; preds = %8
  %17 = call ptr @PyErr_NoMemory()
  store i32 -1, ptr %3, align 4
  br label %20

18:                                               ; preds = %8
  br label %19

19:                                               ; preds = %18, %2
  store i32 0, ptr %3, align 4
  br label %20

20:                                               ; preds = %19, %16
  %21 = load i32, ptr %3, align 4
  ret i32 %21
}

; Function Attrs: nounwind uwtable
define dso_local void @PyMarshal_WriteObjectToFile(ptr noundef %0, ptr noundef %1, i32 noundef %2) #0 {
  %4 = alloca ptr, align 8
  %5 = alloca ptr, align 8
  %6 = alloca i32, align 4
  %7 = alloca [8192 x i8], align 16
  %8 = alloca %struct.WFILE, align 8
  %9 = alloca i32, align 4
  store ptr %0, ptr %4, align 8, !tbaa !25
  store ptr %1, ptr %5, align 8, !tbaa !8
  store i32 %2, ptr %6, align 4, !tbaa !11
  call void @llvm.lifetime.start.p0(i64 8192, ptr %7) #11
  call void @llvm.lifetime.start.p0(i64 64, ptr %8) #11
  %10 = load ptr, ptr %4, align 8, !tbaa !25
  %11 = load i32, ptr %6, align 4, !tbaa !11
  %12 = call i32 (ptr, ptr, ...) @PySys_Audit(ptr noundef @.str, ptr noundef @.str.1, ptr noundef %10, i32 noundef %11)
  %13 = icmp slt i32 %12, 0
  br i1 %13, label %14, label %15

14:                                               ; preds = %3
  store i32 1, ptr %9, align 4
  br label %35

15:                                               ; preds = %3
  call void @llvm.memset.p0.i64(ptr align 8 %8, i8 0, i64 64, i1 false)
  %16 = load ptr, ptr %5, align 8, !tbaa !8
  %17 = getelementptr inbounds nuw %struct.WFILE, ptr %8, i32 0, i32 0
  store ptr %16, ptr %17, align 8, !tbaa !13
  %18 = getelementptr inbounds [8192 x i8], ptr %7, i64 0, i64 0
  %19 = getelementptr inbounds nuw %struct.WFILE, ptr %8, i32 0, i32 6
  store ptr %18, ptr %19, align 8, !tbaa !18
  %20 = getelementptr inbounds nuw %struct.WFILE, ptr %8, i32 0, i32 4
  store ptr %18, ptr %20, align 8, !tbaa !19
  %21 = getelementptr inbounds nuw %struct.WFILE, ptr %8, i32 0, i32 4
  %22 = load ptr, ptr %21, align 8, !tbaa !19
  %23 = getelementptr i8, ptr %22, i64 8192
  %24 = getelementptr inbounds nuw %struct.WFILE, ptr %8, i32 0, i32 5
  store ptr %23, ptr %24, align 8, !tbaa !20
  %25 = getelementptr inbounds nuw %struct.WFILE, ptr %8, i32 0, i32 1
  store i32 0, ptr %25, align 8, !tbaa !21
  %26 = load i32, ptr %6, align 4, !tbaa !11
  %27 = getelementptr inbounds nuw %struct.WFILE, ptr %8, i32 0, i32 8
  store i32 %26, ptr %27, align 8, !tbaa !22
  %28 = getelementptr inbounds nuw %struct.WFILE, ptr %8, i32 0, i32 9
  store i32 1, ptr %28, align 4, !tbaa !26
  %29 = load i32, ptr %6, align 4, !tbaa !11
  %30 = call i32 @w_init_refs(ptr noundef %8, i32 noundef %29)
  %31 = icmp ne i32 %30, 0
  br i1 %31, label %32, label %33

32:                                               ; preds = %15
  store i32 1, ptr %9, align 4
  br label %35

33:                                               ; preds = %15
  %34 = load ptr, ptr %4, align 8, !tbaa !25
  call void @w_object(ptr noundef %34, ptr noundef %8)
  call void @w_clear_refs(ptr noundef %8)
  call void @w_flush(ptr noundef %8)
  store i32 0, ptr %9, align 4
  br label %35

35:                                               ; preds = %33, %32, %14
  call void @llvm.lifetime.end.p0(i64 64, ptr %8) #11
  call void @llvm.lifetime.end.p0(i64 8192, ptr %7) #11
  %36 = load i32, ptr %9, align 4
  switch i32 %36, label %38 [
    i32 0, label %37
    i32 1, label %37
  ]

37:                                               ; preds = %35, %35
  ret void

38:                                               ; preds = %35
  unreachable
}