; Function Attrs: nounwind uwtable
define dso_local void @PyMarshal_WriteObjectToFile(ptr noundef %0, ptr noundef %1, i32 noundef %2) local_unnamed_addr #0 {
  %4 = alloca [8192 x i8], align 16
  %5 = alloca %struct.WFILE, align 8
  call void @llvm.lifetime.start.p0(i64 8192, ptr nonnull %4) #11
  call void @llvm.lifetime.start.p0(i64 64, ptr nonnull %5) #11
  %6 = tail call i32 (ptr, ptr, ...) @PySys_Audit(ptr noundef nonnull @.str, ptr noundef nonnull @.str.1, ptr noundef %0, i32 noundef %2) #11
  %7 = icmp slt i32 %6, 0
  br i1 %7, label %32, label %8

8:                                                ; preds = %3
  %9 = getelementptr inbounds nuw i8, ptr %5, i64 8
  call void @llvm.memset.p0.i64(ptr noundef nonnull align 8 dereferenceable(64) %9, i8 0, i64 48, i1 false)
  store ptr %1, ptr %5, align 8, !tbaa !4
  %10 = getelementptr inbounds nuw i8, ptr %5, i64 40
  store ptr %4, ptr %10, align 8, !tbaa !14
  %11 = getelementptr inbounds nuw i8, ptr %5, i64 24
  store ptr %4, ptr %11, align 8, !tbaa !15
  %12 = getelementptr inbounds nuw i8, ptr %4, i64 8192
  %13 = getelementptr inbounds nuw i8, ptr %5, i64 32
  store ptr %12, ptr %13, align 8, !tbaa !16
  %14 = getelementptr inbounds nuw i8, ptr %5, i64 56
  store i32 %2, ptr %14, align 8, !tbaa !17
  %15 = getelementptr inbounds nuw i8, ptr %5, i64 60
  store i32 1, ptr %15, align 4, !tbaa !26
  %16 = icmp sgt i32 %2, 2
  br i1 %16, label %17, label %22

17:                                               ; preds = %8
  %18 = call ptr @_Py_hashtable_new_full(ptr noundef nonnull @_Py_hashtable_hash_ptr, ptr noundef nonnull @_Py_hashtable_compare_direct, ptr noundef nonnull @w_decref_entry, ptr noundef null, ptr noundef null) #11
  %19 = getelementptr inbounds nuw i8, ptr %5, i64 48
  store ptr %18, ptr %19, align 8, !tbaa !27
  %20 = icmp eq ptr %18, null
  br i1 %20, label %w_init_refs.exit, label %22

w_init_refs.exit:                                 ; preds = %17
  %21 = call ptr @PyErr_NoMemory() #11
  br label %32

22:                                               ; preds = %17, %8
  call fastcc void @w_object(ptr noundef %0, ptr noundef %5)
  %23 = getelementptr inbounds nuw i8, ptr %5, i64 48
  %.val = load ptr, ptr %23, align 8, !tbaa !27
  %.not.i = icmp eq ptr %.val, null
  br i1 %.not.i, label %w_clear_refs.exit, label %24

24:                                               ; preds = %22
  call void @_Py_hashtable_destroy(ptr noundef nonnull %.val) #11
  br label %w_clear_refs.exit

w_clear_refs.exit:                                ; preds = %22, %24
  %25 = load ptr, ptr %10, align 8, !tbaa !14
  %26 = load ptr, ptr %11, align 8, !tbaa !15
  %27 = ptrtoint ptr %26 to i64
  %28 = ptrtoint ptr %25 to i64
  %29 = sub i64 %27, %28
  %30 = load ptr, ptr %5, align 8, !tbaa !4
  %31 = call i64 @fwrite(ptr noundef %25, i64 noundef 1, i64 noundef %29, ptr noundef %30)
  br label %32

32:                                               ; preds = %w_init_refs.exit, %3, %w_clear_refs.exit
  call void @llvm.lifetime.end.p0(i64 64, ptr nonnull %5) #11
  call void @llvm.lifetime.end.p0(i64 8192, ptr nonnull %4) #11
  ret void
}